target datalayout = "e-m:e-p270:32:32-p271:32:32-p272:64:64-i64:64-i128:128-f80:128-n8:16:32:64-S128"
target triple = "x86_64-pc-linux-gnu"

%"class.xgboost::common::Span.1" = type { i64, ptr }
%"class.xgboost::common::Span.76" = type { i64, ptr }

; Function Attrs: mustprogress nounwind uwtable
define linkonce_odr noundef ptr @_ZNK7xgboost6common4SpanIKNS_6detail20GradientPairInternalIdEELm18446744073709551615EE4dataEv(ptr noundef nonnull align 8 dereferenceable(16) %0) #6 comdat align 2 {
  %2 = alloca ptr, align 8
  store ptr %0, ptr %2, align 8, !tbaa !195
  %3 = load ptr, ptr %2, align 8
  %4 = getelementptr inbounds nuw %"class.xgboost::common::Span.76", ptr %3, i32 0, i32 1
  %5 = load ptr, ptr %4, align 8, !tbaa !197
  ret ptr %5
}

; Function Attrs: mustprogress nounwind uwtable
define linkonce_odr noundef ptr @_ZNK7xgboost6common4SpanINS_6detail20GradientPairInternalIdEELm18446744073709551615EE4dataEv(ptr noundef nonnull align 8 dereferenceable(16) %0) #6 comdat align 2 {
  %2 = alloca ptr, align 8
  store ptr %0, ptr %2, align 8, !tbaa !62
  %3 = load ptr, ptr %2, align 8
  %4 = getelementptr inbounds nuw %"class.xgboost::common::Span.1", ptr %3, i32 0, i32 1
  %5 = load ptr, ptr %4, align 8, !tbaa !192
  ret ptr %5
}

; Function Attrs: mustprogress nounwind uwtable
define void @_ZN7xgboost6common13IncrementHistENS0_4SpanINS_6detail20GradientPairInternalIdEELm18446744073709551615EEENS1_IKS4_Lm18446744073709551615EEEmm(i64 %0, ptr %1, i64 %2, ptr %3, i64 noundef %4, i64 noundef %5) #6 {
  %7 = alloca %"class.xgboost::common::Span.1", align 8
  %8 = alloca %"class.xgboost::common::Span.76", align 8
  %9 = alloca i64, align 8
  %10 = alloca i64, align 8
  %11 = alloca ptr, align 8
  %12 = alloca ptr, align 8
  %13 = alloca i64, align 8
  %14 = getelementptr inbounds nuw { i64, ptr }, ptr %7, i32 0, i32 0
  store i64 %0, ptr %14, align 8
  %15 = getelementptr inbounds nuw { i64, ptr }, ptr %7, i32 0, i32 1
  store ptr %1, ptr %15, align 8
  %16 = getelementptr inbounds nuw { i64, ptr }, ptr %8, i32 0, i32 0
  store i64 %2, ptr %16, align 8
  %17 = getelementptr inbounds nuw { i64, ptr }, ptr %8, i32 0, i32 1
  store ptr %3, ptr %17, align 8
  store i64 %4, ptr %9, align 8, !tbaa !99
  store i64 %5, ptr %10, align 8, !tbaa !99
  call void @llvm.lifetime.start.p0(i64 8, ptr %11) #3
  %18 = call noundef ptr @_ZNK7xgboost6common4SpanINS_6detail20GradientPairInternalIdEELm18446744073709551615EE4dataEv(ptr noundef nonnull align 8 dereferenceable(16) %7) #3
  store ptr %18, ptr %11, align 8, !tbaa !189
  call void @llvm.lifetime.start.p0(i64 8, ptr %12) #3
  %19 = call noundef ptr @_ZNK7xgboost6common4SpanIKNS_6detail20GradientPairInternalIdEELm18446744073709551615EE4dataEv(ptr noundef nonnull align 8 dereferenceable(16) %8) #3
  store ptr %19, ptr %12, align 8, !tbaa !189
  call void @llvm.lifetime.start.p0(i64 8, ptr %13) #3
  %20 = load i64, ptr %9, align 8, !tbaa !99
  %21 = mul i64 2, %20
  store i64 %21, ptr %13, align 8, !tbaa !99
  br label %22

22:                                               ; preds = %38, %6
  %23 = load i64, ptr %13, align 8, !tbaa !99
  %24 = load i64, ptr %10, align 8, !tbaa !99
  %25 = mul i64 2, %24
  %26 = icmp ult i64 %23, %25
  br i1 %26, label %28, label %27

27:                                               ; preds = %22
  call void @llvm.lifetime.end.p0(i64 8, ptr %13) #3
  br label %41

28:                                               ; preds = %22
  %29 = load ptr, ptr %12, align 8, !tbaa !189
  %30 = load i64, ptr %13, align 8, !tbaa !99
  %31 = getelementptr inbounds nuw double, ptr %29, i64 %30
  %32 = load double, ptr %31, align 8, !tbaa !10
  %33 = load ptr, ptr %11, align 8, !tbaa !189
  %34 = load i64, ptr %13, align 8, !tbaa !99
  %35 = getelementptr inbounds nuw double, ptr %33, i64 %34
  %36 = load double, ptr %35, align 8, !tbaa !10
  %37 = fadd double %36, %32
  store double %37, ptr %35, align 8, !tbaa !10
  br label %38

38:                                               ; preds = %28
  %39 = load i64, ptr %13, align 8, !tbaa !99
  %40 = add i64 %39, 1
  store i64 %40, ptr %13, align 8, !tbaa !99
  br label %22, !llvm.loop !191

41:                                               ; preds = %27
  call void @llvm.lifetime.end.p0(i64 8, ptr %12) #3
  call void @llvm.lifetime.end.p0(i64 8, ptr %11) #3
  ret void
}